; ModuleID = '31/531.c'
source_filename = "31/531.c"
target datalayout = "e-m:e-p270:32:32-p271:32:32-p272:64:64-i64:64-f80:128-n8:16:32:64-S128"
target triple = "x86_64-pc-linux-gnu"

%struct.b = type { [60 x i8] }

; Function Attrs: noinline nounwind uwtable
define dso_local i32 @main() #0 {
  %1 = alloca i32, align 4
  %2 = alloca i32, align 4
  %3 = alloca %struct.b, align 1
  %4 = alloca [10000 x %struct.b*], align 16
  store i32 0, i32* %1, align 4
  store i32 0, i32* %2, align 4
  br label %5

5:                                                ; preds = %0, %15
  %6 = getelementptr inbounds %struct.b, %struct.b* %3, i32 0, i32 0
  %7 = getelementptr inbounds [60 x i8], [60 x i8]* %6, i64 0, i64 0
  %8 = call i32 (i8*, ...) bitcast (i32 (...)* @gets to i32 (i8*, ...)*)(i8* %7)
  %9 = getelementptr inbounds %struct.b, %struct.b* %3, i32 0, i32 0
  %10 = getelementptr inbounds [60 x i8], [60 x i8]* %9, i64 0, i64 0
  %11 = load i8, i8* %10, align 1
  %12 = sext i8 %11 to i32
  %13 = icmp eq i32 %12, 101
  br i1 %13, label %14, label %15

14:                                               ; preds = %5
  br label %29

15:                                               ; preds = %5
  %16 = call noalias i8* @malloc(i64 60) #4
  %17 = bitcast i8* %16 to %struct.b*
  %18 = load i32, i32* %2, align 4
  %19 = sext i32 %18 to i64
  %20 = getelementptr inbounds [10000 x %struct.b*], [10000 x %struct.b*]* %4, i64 0, i64 %19
  store %struct.b* %17, %struct.b** %20, align 8
  %21 = load i32, i32* %2, align 4
  %22 = sext i32 %21 to i64
  %23 = getelementptr inbounds [10000 x %struct.b*], [10000 x %struct.b*]* %4, i64 0, i64 %22
  %24 = load %struct.b*, %struct.b** %23, align 8
  %25 = bitcast %struct.b* %24 to i8*
  %26 = bitcast %struct.b* %3 to i8*
  call void @llvm.memcpy.p0i8.p0i8.i64(i8* align 1 %25, i8* align 1 %26, i64 60, i1 false)
  %27 = load i32, i32* %2, align 4
  %28 = add nsw i32 %27, 1
  store i32 %28, i32* %2, align 4
  br label %5

29:                                               ; preds = %14
  br label %30

30:                                               ; preds = %34, %29
  %31 = load i32, i32* %2, align 4
  %32 = add nsw i32 %31, -1
  store i32 %32, i32* %2, align 4
  %33 = icmp ne i32 %31, 0
  br i1 %33, label %34, label %42

34:                                               ; preds = %30
  %35 = load i32, i32* %2, align 4
  %36 = sext i32 %35 to i64
  %37 = getelementptr inbounds [10000 x %struct.b*], [10000 x %struct.b*]* %4, i64 0, i64 %36
  %38 = load %struct.b*, %struct.b** %37, align 8
  %39 = getelementptr inbounds %struct.b, %struct.b* %38, i32 0, i32 0
  %40 = getelementptr inbounds [60 x i8], [60 x i8]* %39, i64 0, i64 0
  %41 = call i32 @puts(i8* %40)
  br label %30

42:                                               ; preds = %30
  %43 = load i32, i32* %1, align 4
  ret i32 %43
}

declare dso_local i32 @gets(...) #1

; Function Attrs: nounwind
declare dso_local noalias i8* @malloc(i64) #2

; Function Attrs: argmemonly nounwind willreturn
declare void @llvm.memcpy.p0i8.p0i8.i64(i8* noalias nocapture writeonly, i8* noalias nocapture readonly, i64, i1 immarg) #3

declare dso_local i32 @puts(i8*) #1


!llvm.module.flags = !{!0}
!llvm.ident = !{!1}

!0 = !{i32 1, !"wchar_size", i32 4}
!1 = !{!"clang version 10.0.0-4ubuntu1 "}
